; ModuleID = 'source-C-CXX/39/1641.c'
source_filename = "source-C-CXX/39/1641.c"
target datalayout = "e-m:e-p270:32:32-p271:32:32-p272:64:64-i64:64-f80:128-n8:16:32:64-S128"
target triple = "x86_64-pc-linux-gnu"

@.str = private unnamed_addr constant [20 x i8] c"%lf\0A%lf\0A%lf\0A%lf\0A%lf\00", align 1
@.str.2 = private unnamed_addr constant [6 x i8] c"%.4f\0A\00", align 1
@str = private unnamed_addr constant [14 x i8] c"Invalid input\00", align 1

; Function Attrs: nofree nounwind sspstrong uwtable
define dso_local i32 @main() local_unnamed_addr #0 {
  %1 = alloca double, align 8
  %2 = alloca double, align 8
  %3 = alloca double, align 8
  %4 = alloca double, align 8
  %5 = alloca double, align 8
  %6 = bitcast double* %1 to i8*
  call void @llvm.lifetime.start.p0i8(i64 8, i8* nonnull %6) #5
  %7 = bitcast double* %2 to i8*
  call void @llvm.lifetime.start.p0i8(i64 8, i8* nonnull %7) #5
  %8 = bitcast double* %3 to i8*
  call void @llvm.lifetime.start.p0i8(i64 8, i8* nonnull %8) #5
  %9 = bitcast double* %4 to i8*
  call void @llvm.lifetime.start.p0i8(i64 8, i8* nonnull %9) #5
  %10 = bitcast double* %5 to i8*
  call void @llvm.lifetime.start.p0i8(i64 8, i8* nonnull %10) #5
  %11 = call i32 (i8*, ...) @__isoc99_scanf(i8* getelementptr inbounds ([20 x i8], [20 x i8]* @.str, i64 0, i64 0), double* nonnull %1, double* nonnull %2, double* nonnull %3, double* nonnull %4, double* nonnull %5)
  %12 = load double, double* %1, align 8, !tbaa !5
  %13 = load double, double* %2, align 8, !tbaa !5
  %14 = fadd double %12, %13
  %15 = load double, double* %3, align 8, !tbaa !5
  %16 = fadd double %14, %15
  %17 = load double, double* %4, align 8, !tbaa !5
  %18 = fadd double %16, %17
  %19 = fmul double %18, 5.000000e-01
  %20 = fsub double %19, %12
  %21 = fsub double %19, %13
  %22 = fmul double %20, %21
  %23 = fsub double %19, %15
  %24 = fmul double %23, %22
  %25 = fsub double %19, %17
  %26 = fmul double %25, %24
  %27 = fmul double %12, %13
  %28 = fmul double %27, %15
  %29 = fmul double %28, %17
  %30 = load double, double* %5, align 8, !tbaa !5
  %31 = fdiv double %30, 3.600000e+02
  %32 = fmul double %31, 0x400921FB542FE938
  %33 = call double @cos(double %32) #5
  %34 = fmul double %29, %33
  %35 = load double, double* %5, align 8, !tbaa !5
  %36 = fdiv double %35, 3.600000e+02
  %37 = fmul double %36, 0x400921FB542FE938
  %38 = call double @cos(double %37) #5
  %39 = fmul double %34, %38
  %40 = fsub double %26, %39
  %41 = fcmp olt double %40, 0.000000e+00
  br i1 %41, label %42, label %44

42:                                               ; preds = %0
  %43 = call i32 @puts(i8* nonnull dereferenceable(1) getelementptr inbounds ([14 x i8], [14 x i8]* @str, i64 0, i64 0))
  br label %99

44:                                               ; preds = %0
  %45 = load double, double* %1, align 8, !tbaa !5
  %46 = fsub double %19, %45
  %47 = load double, double* %2, align 8, !tbaa !5
  %48 = fsub double %19, %47
  %49 = fmul double %46, %48
  %50 = load double, double* %3, align 8, !tbaa !5
  %51 = fsub double %19, %50
  %52 = fmul double %49, %51
  %53 = load double, double* %4, align 8, !tbaa !5
  %54 = fsub double %19, %53
  %55 = fmul double %52, %54
  %56 = fmul double %45, %47
  %57 = fmul double %56, %50
  %58 = fmul double %57, %53
  %59 = load double, double* %5, align 8, !tbaa !5
  %60 = fdiv double %59, 3.600000e+02
  %61 = fmul double %60, 0x400921FB542FE938
  %62 = call double @cos(double %61) #5
  %63 = fmul double %58, %62
  %64 = load double, double* %5, align 8, !tbaa !5
  %65 = fdiv double %64, 3.600000e+02
  %66 = fmul double %65, 0x400921FB542FE938
  %67 = call double @cos(double %66) #5
  %68 = fmul double %63, %67
  %69 = fsub double %55, %68
  %70 = fcmp ult double %69, 0.000000e+00
  br i1 %70, label %99, label %71

71:                                               ; preds = %44
  %72 = load double, double* %1, align 8, !tbaa !5
  %73 = fsub double %19, %72
  %74 = load double, double* %2, align 8, !tbaa !5
  %75 = fsub double %19, %74
  %76 = fmul double %73, %75
  %77 = load double, double* %3, align 8, !tbaa !5
  %78 = fsub double %19, %77
  %79 = fmul double %76, %78
  %80 = load double, double* %4, align 8, !tbaa !5
  %81 = fsub double %19, %80
  %82 = fmul double %79, %81
  %83 = fmul double %72, %74
  %84 = fmul double %83, %77
  %85 = fmul double %84, %80
  %86 = load double, double* %5, align 8, !tbaa !5
  %87 = fdiv double %86, 3.600000e+02
  %88 = fmul double %87, 0x400921FB542FE938
  %89 = call double @cos(double %88) #5
  %90 = fmul double %85, %89
  %91 = load double, double* %5, align 8, !tbaa !5
  %92 = fdiv double %91, 3.600000e+02
  %93 = fmul double %92, 0x400921FB542FE938
  %94 = call double @cos(double %93) #5
  %95 = fmul double %90, %94
  %96 = fsub double %82, %95
  %97 = call double @sqrt(double %96) #5
  %98 = call i32 (i8*, ...) @printf(i8* nonnull dereferenceable(1) getelementptr inbounds ([6 x i8], [6 x i8]* @.str.2, i64 0, i64 0), double %97)
  br label %99

99:                                               ; preds = %44, %71, %42
  call void @llvm.lifetime.end.p0i8(i64 8, i8* nonnull %10) #5
  call void @llvm.lifetime.end.p0i8(i64 8, i8* nonnull %9) #5
  call void @llvm.lifetime.end.p0i8(i64 8, i8* nonnull %8) #5
  call void @llvm.lifetime.end.p0i8(i64 8, i8* nonnull %7) #5
  call void @llvm.lifetime.end.p0i8(i64 8, i8* nonnull %6) #5
  ret i32 0
}

; Function Attrs: argmemonly mustprogress nofree nosync nounwind willreturn
declare void @llvm.lifetime.start.p0i8(i64 immarg, i8* nocapture) #1

; Function Attrs: nofree nounwind
declare noundef i32 @__isoc99_scanf(i8* nocapture noundef readonly, ...) local_unnamed_addr #2

; Function Attrs: mustprogress nofree nounwind willreturn
declare double @cos(double) local_unnamed_addr #3

; Function Attrs: nofree nounwind
declare noundef i32 @printf(i8* nocapture noundef readonly, ...) local_unnamed_addr #2

; Function Attrs: mustprogress nofree nounwind willreturn
declare double @sqrt(double) local_unnamed_addr #3

; Function Attrs: argmemonly mustprogress nofree nosync nounwind willreturn
declare void @llvm.lifetime.end.p0i8(i64 immarg, i8* nocapture) #1

; Function Attrs: nofree nounwind
declare noundef i32 @puts(i8* nocapture noundef readonly) local_unnamed_addr #4


!llvm.module.flags = !{!0, !1, !2, !3}
!llvm.ident = !{!4}

!0 = !{i32 1, !"wchar_size", i32 4}
!1 = !{i32 7, !"PIC Level", i32 2}
!2 = !{i32 7, !"PIE Level", i32 2}
!3 = !{i32 7, !"uwtable", i32 1}
!4 = !{!"clang version 13.0.0"}
!5 = !{!6, !6, i64 0}
!6 = !{!"double", !7, i64 0}
!7 = !{!"omnipotent char", !8, i64 0}
!8 = !{!"Simple C/C++ TBAA"}
